; Function Attrs: nounwind uwtable
define internal noundef i32 @lj_cf_debug_setfenv(ptr noundef %0) #0 {
  %2 = tail call ptr @lj_lib_checktab(ptr noundef %0, i32 noundef 2) #10
  %3 = getelementptr inbounds nuw i8, ptr %0, i64 32
  %4 = load ptr, ptr %3, align 8, !tbaa !16
  %5 = getelementptr inbounds nuw i8, ptr %4, i64 16
  %6 = getelementptr inbounds nuw i8, ptr %0, i64 40
  store ptr %5, ptr %6, align 8, !tbaa !4
  %7 = tail call i32 @lua_setfenv(ptr noundef %0, i32 noundef 1) #10
  %.not = icmp eq i32 %7, 0
  br i1 %.not, label %8, label %9

8:                                                ; preds = %1
  tail call void @lj_err_caller(ptr noundef nonnull %0, i32 noundef 1234) #11
  unreachable

9:                                                ; preds = %1
  ret i32 1
}